target datalayout = "e-m:e-p270:32:32-p271:32:32-p272:64:64-i64:64-i128:128-f80:128-n8:16:32:64-S128"
target triple = "x86_64-pc-linux-gnu"

%"class.clang::SourceLocation" = type { i32 }
%"class.llvm::ArrayRef.0" = type { ptr, i64 }
%"class.clang::Decl.base" = type <{ ptr, %"class.llvm::PointerIntPair.338", %"class.llvm::PointerUnion", %"class.clang::SourceLocation", i32, i8 }>
%"class.llvm::PointerIntPair.338" = type { %"struct.llvm::detail::PunnedPointer.339" }
%"struct.llvm::detail::PunnedPointer.339" = type { [8 x i8] }
%"class.llvm::PointerUnion" = type { %"class.llvm::pointer_union_detail::PointerUnionMembers" }
%"class.llvm::pointer_union_detail::PointerUnionMembers" = type { %"class.llvm::pointer_union_detail::PointerUnionMembers.340" }
%"class.llvm::pointer_union_detail::PointerUnionMembers.340" = type { %"class.llvm::pointer_union_detail::PointerUnionMembers.341" }
%"class.llvm::pointer_union_detail::PointerUnionMembers.341" = type { %"class.llvm::PointerIntPair.342" }
%"class.llvm::PointerIntPair.342" = type { %"struct.llvm::detail::PunnedPointer.343" }
%"struct.llvm::detail::PunnedPointer.343" = type { [8 x i8] }
%"class.clang::DeclarationName" = type { i64 }
%"class.clang::QualType" = type { %"class.llvm::PointerIntPair" }
%"class.llvm::PointerIntPair" = type { %"struct.llvm::detail::PunnedPointer" }
%"struct.llvm::detail::PunnedPointer" = type { [8 x i8] }
%"class.clang::ValueDecl" = type { %"class.clang::NamedDecl", %"class.clang::QualType" }
%"class.clang::NamedDecl" = type { %"class.clang::Decl.base", %"class.clang::DeclarationName" }
%"class.clang::DeclContext" = type { ptr, %union.anon.344, ptr, ptr }
%union.anon.344 = type { %"class.clang::DeclContext::RecordDeclBitfields" }
%"class.clang::DeclContext::RecordDeclBitfields" = type { i64 }
%"struct.clang::LazyOffsetPtr" = type { i64 }
%"class.clang::OMPDeclareMapperDecl" = type { %"class.clang::OMPDeclarativeDirective.345", %"class.clang::DeclContext", ptr, %"class.clang::DeclarationName", %"struct.clang::LazyOffsetPtr" }
%"class.clang::OMPDeclarativeDirective.345" = type { %"class.clang::ValueDecl", ptr }

@_ZTVN5clang9ValueDeclE = external unnamed_addr constant { [15 x ptr] }, align 8
@_ZTVN5clang9NamedDeclE = external unnamed_addr constant { [15 x ptr] }, align 8

; Function Attrs: mustprogress nounwind uwtable
define linkonce_odr hidden void @_ZN5clang9NamedDeclC2ENS_4Decl4KindEPNS_11DeclContextENS_14SourceLocationENS_15DeclarationNameE(ptr noundef nonnull align 8 dereferenceable(48) %0, i32 noundef %1, ptr noundef %2, i32 %3, i64 %4) unnamed_addr #0 comdat align 2 {
  %6 = alloca %"class.clang::SourceLocation", align 4
  %7 = alloca %"class.clang::DeclarationName", align 8
  %8 = alloca ptr, align 8
  %9 = alloca i32, align 4
  %10 = alloca ptr, align 8
  %11 = alloca %"class.clang::SourceLocation", align 4
  %12 = getelementptr inbounds nuw %"class.clang::SourceLocation", ptr %6, i32 0, i32 0
  store i32 %3, ptr %12, align 4
  %13 = getelementptr inbounds nuw %"class.clang::DeclarationName", ptr %7, i32 0, i32 0
  store i64 %4, ptr %13, align 8
  store ptr %0, ptr %8, align 8
  store i32 %1, ptr %9, align 4
  store ptr %2, ptr %10, align 8
  %14 = load ptr, ptr %8, align 8
  %15 = load i32, ptr %9, align 4
  %16 = load ptr, ptr %10, align 8
  call void @llvm.memcpy.p0.p0.i64(ptr align 4 %11, ptr align 4 %6, i64 4, i1 false)
  %17 = getelementptr inbounds nuw %"class.clang::SourceLocation", ptr %11, i32 0, i32 0
  %18 = load i32, ptr %17, align 4
  call void @_ZN5clang4DeclC2ENS0_4KindEPNS_11DeclContextENS_14SourceLocationE(ptr noundef nonnull align 8 dereferenceable(33) %14, i32 noundef %15, ptr noundef %16, i32 %18)
  store ptr getelementptr inbounds inrange(-16, 104) ({ [15 x ptr] }, ptr @_ZTVN5clang9NamedDeclE, i32 0, i32 0, i32 2), ptr %14, align 8
  %19 = getelementptr inbounds nuw %"class.clang::NamedDecl", ptr %14, i32 0, i32 1
  call void @llvm.memcpy.p0.p0.i64(ptr align 8 %19, ptr align 8 %7, i64 8, i1 false)
  ret void
}

; Function Attrs: mustprogress nounwind uwtable
define linkonce_odr hidden void @_ZN5clang9ValueDeclC2ENS_4Decl4KindEPNS_11DeclContextENS_14SourceLocationENS_15DeclarationNameENS_8QualTypeE(ptr noundef nonnull align 8 dereferenceable(56) %0, i32 noundef %1, ptr noundef %2, i32 %3, i64 %4, i64 %5) unnamed_addr #0 comdat align 2 {
  %7 = alloca %"class.clang::SourceLocation", align 4
  %8 = alloca %"class.clang::DeclarationName", align 8
  %9 = alloca %"class.clang::QualType", align 8
  %10 = alloca ptr, align 8
  %11 = alloca i32, align 4
  %12 = alloca ptr, align 8
  %13 = alloca %"class.clang::SourceLocation", align 4
  %14 = alloca %"class.clang::DeclarationName", align 8
  %15 = getelementptr inbounds nuw %"class.clang::SourceLocation", ptr %7, i32 0, i32 0
  store i32 %3, ptr %15, align 4
  %16 = getelementptr inbounds nuw %"class.clang::DeclarationName", ptr %8, i32 0, i32 0
  store i64 %4, ptr %16, align 8
  %17 = getelementptr inbounds nuw %"class.clang::QualType", ptr %9, i32 0, i32 0
  %18 = getelementptr inbounds nuw %"class.llvm::PointerIntPair", ptr %17, i32 0, i32 0
  %19 = getelementptr inbounds nuw %"struct.llvm::detail::PunnedPointer", ptr %18, i32 0, i32 0
  store i64 %5, ptr %19, align 8
  store ptr %0, ptr %10, align 8
  store i32 %1, ptr %11, align 4
  store ptr %2, ptr %12, align 8
  %20 = load ptr, ptr %10, align 8
  %21 = load i32, ptr %11, align 4
  %22 = load ptr, ptr %12, align 8
  call void @llvm.memcpy.p0.p0.i64(ptr align 4 %13, ptr align 4 %7, i64 4, i1 false)
  call void @llvm.memcpy.p0.p0.i64(ptr align 8 %14, ptr align 8 %8, i64 8, i1 false)
  %23 = getelementptr inbounds nuw %"class.clang::SourceLocation", ptr %13, i32 0, i32 0
  %24 = load i32, ptr %23, align 4
  %25 = getelementptr inbounds nuw %"class.clang::DeclarationName", ptr %14, i32 0, i32 0
  %26 = load i64, ptr %25, align 8
  call void @_ZN5clang9NamedDeclC2ENS_4Decl4KindEPNS_11DeclContextENS_14SourceLocationENS_15DeclarationNameE(ptr noundef nonnull align 8 dereferenceable(48) %20, i32 noundef %21, ptr noundef %22, i32 %24, i64 %26)
  store ptr getelementptr inbounds inrange(-16, 104) ({ [15 x ptr] }, ptr @_ZTVN5clang9ValueDeclE, i32 0, i32 0, i32 2), ptr %20, align 8
  %27 = getelementptr inbounds nuw %"class.clang::ValueDecl", ptr %20, i32 0, i32 1
  call void @llvm.memcpy.p0.p0.i64(ptr align 8 %27, ptr align 8 %9, i64 8, i1 false)
  ret void
}

; Function Attrs: mustprogress nounwind uwtable
define linkonce_odr hidden void @_ZN5clang13LazyOffsetPtrINS_4DeclENS_12GlobalDeclIDEXadL_ZNS_17ExternalASTSource15GetExternalDeclES2_EEEC2EPS1_(ptr noundef nonnull align 8 dereferenceable(8) %0, ptr noundef %1) unnamed_addr #0 comdat align 2 {
  %3 = alloca ptr, align 8
  %4 = alloca ptr, align 8
  store ptr %0, ptr %3, align 8
  store ptr %1, ptr %4, align 8
  %5 = load ptr, ptr %3, align 8
  %6 = getelementptr inbounds nuw %"struct.clang::LazyOffsetPtr", ptr %5, i32 0, i32 0
  %7 = load ptr, ptr %4, align 8
  %8 = ptrtoint ptr %7 to i64
  store i64 %8, ptr %6, align 8
  ret void
}

; Function Attrs: mustprogress nounwind uwtable
define linkonce_odr hidden void @_ZN5clang23OMPDeclarativeDirectiveINS_9ValueDeclEEC2IJNS_4Decl4KindERPNS_11DeclContextERNS_14SourceLocationERNS_15DeclarationNameERNS_8QualTypeEEEEDpOT_(ptr noundef nonnull align 8 dereferenceable(64) %0, ptr noundef nonnull align 4 dereferenceable(4) %1, ptr noundef nonnull align 8 dereferenceable(8) %2, ptr noundef nonnull align 4 dereferenceable(4) %3, ptr noundef nonnull align 8 dereferenceable(8) %4, ptr noundef nonnull align 8 dereferenceable(8) %5) unnamed_addr #0 comdat align 2 {
  %7 = alloca ptr, align 8
  %8 = alloca ptr, align 8
  %9 = alloca ptr, align 8
  %10 = alloca ptr, align 8
  %11 = alloca ptr, align 8
  %12 = alloca ptr, align 8
  %13 = alloca %"class.clang::SourceLocation", align 4
  %14 = alloca %"class.clang::DeclarationName", align 8
  %15 = alloca %"class.clang::QualType", align 8
  store ptr %0, ptr %7, align 8
  store ptr %1, ptr %8, align 8
  store ptr %2, ptr %9, align 8
  store ptr %3, ptr %10, align 8
  store ptr %4, ptr %11, align 8
  store ptr %5, ptr %12, align 8
  %16 = load ptr, ptr %7, align 8
  %17 = load ptr, ptr %8, align 8
  %18 = load i32, ptr %17, align 4
  %19 = load ptr, ptr %9, align 8
  %20 = load ptr, ptr %19, align 8
  %21 = load ptr, ptr %10, align 8
  call void @llvm.memcpy.p0.p0.i64(ptr align 4 %13, ptr align 4 %21, i64 4, i1 false)
  %22 = load ptr, ptr %11, align 8
  call void @llvm.memcpy.p0.p0.i64(ptr align 8 %14, ptr align 8 %22, i64 8, i1 false)
  %23 = load ptr, ptr %12, align 8
  call void @llvm.memcpy.p0.p0.i64(ptr align 8 %15, ptr align 8 %23, i64 8, i1 false)
  %24 = getelementptr inbounds nuw %"class.clang::SourceLocation", ptr %13, i32 0, i32 0
  %25 = load i32, ptr %24, align 4
  %26 = getelementptr inbounds nuw %"class.clang::DeclarationName", ptr %14, i32 0, i32 0
  %27 = load i64, ptr %26, align 8
  %28 = getelementptr inbounds nuw %"class.clang::QualType", ptr %15, i32 0, i32 0
  %29 = getelementptr inbounds nuw %"class.llvm::PointerIntPair", ptr %28, i32 0, i32 0
  %30 = getelementptr inbounds nuw %"struct.llvm::detail::PunnedPointer", ptr %29, i32 0, i32 0
  %31 = load i64, ptr %30, align 8
  call void @_ZN5clang9ValueDeclC2ENS_4Decl4KindEPNS_11DeclContextENS_14SourceLocationENS_15DeclarationNameENS_8QualTypeE(ptr noundef nonnull align 8 dereferenceable(56) %16, i32 noundef %18, ptr noundef %20, i32 %25, i64 %27, i64 %31)
  store ptr getelementptr inbounds inrange(-16, 104) ({ [15 x ptr] }, ptr @_ZTVN5clang23OMPDeclarativeDirectiveINS_9ValueDeclEEE, i32 0, i32 0, i32 2), ptr %16, align 8
  %32 = getelementptr inbounds nuw %"class.clang::OMPDeclarativeDirective.345", ptr %16, i32 0, i32 1
  store ptr null, ptr %32, align 8
  ret void
}

; Function Attrs: mustprogress nounwind uwtable
define linkonce_odr hidden void @_ZN5clang20OMPDeclareMapperDeclC2EPNS_11DeclContextENS_14SourceLocationENS_15DeclarationNameENS_8QualTypeES4_PS0_(ptr noundef nonnull align 8 dereferenceable(120) %0, ptr noundef %1, i32 %2, i64 %3, i64 %4, i64 %5, ptr noundef %6) unnamed_addr #0 comdat align 2 {
  %8 = alloca %"class.clang::SourceLocation", align 4
  %9 = alloca %"class.clang::DeclarationName", align 8
  %10 = alloca %"class.clang::QualType", align 8
  %11 = alloca %"class.clang::DeclarationName", align 8
  %12 = alloca ptr, align 8
  %13 = alloca ptr, align 8
  %14 = alloca ptr, align 8
  %15 = alloca i32, align 4
  %16 = getelementptr inbounds nuw %"class.clang::SourceLocation", ptr %8, i32 0, i32 0
  store i32 %2, ptr %16, align 4
  %17 = getelementptr inbounds nuw %"class.clang::DeclarationName", ptr %9, i32 0, i32 0
  store i64 %3, ptr %17, align 8
  %18 = getelementptr inbounds nuw %"class.clang::QualType", ptr %10, i32 0, i32 0
  %19 = getelementptr inbounds nuw %"class.llvm::PointerIntPair", ptr %18, i32 0, i32 0
  %20 = getelementptr inbounds nuw %"struct.llvm::detail::PunnedPointer", ptr %19, i32 0, i32 0
  store i64 %4, ptr %20, align 8
  %21 = getelementptr inbounds nuw %"class.clang::DeclarationName", ptr %11, i32 0, i32 0
  store i64 %5, ptr %21, align 8
  store ptr %0, ptr %12, align 8
  store ptr %1, ptr %13, align 8
  store ptr %6, ptr %14, align 8
  %22 = load ptr, ptr %12, align 8
  store i32 24, ptr %15, align 4
  call void @_ZN5clang23OMPDeclarativeDirectiveINS_9ValueDeclEEC2IJNS_4Decl4KindERPNS_11DeclContextERNS_14SourceLocationERNS_15DeclarationNameERNS_8QualTypeEEEEDpOT_(ptr noundef nonnull align 8 dereferenceable(64) %22, ptr noundef nonnull align 4 dereferenceable(4) %15, ptr noundef nonnull align 8 dereferenceable(8) %13, ptr noundef nonnull align 4 dereferenceable(4) %8, ptr noundef nonnull align 8 dereferenceable(8) %9, ptr noundef nonnull align 8 dereferenceable(8) %10)
  %23 = getelementptr inbounds i8, ptr %22, i64 64
  call void @_ZN5clang11DeclContextC2ENS_4Decl4KindE(ptr noundef nonnull align 8 dereferenceable(32) %23, i32 noundef 24)
  store ptr getelementptr inbounds inrange(-16, 104) ({ [15 x ptr] }, ptr @_ZTVN5clang20OMPDeclareMapperDeclE, i32 0, i32 0, i32 2), ptr %22, align 8
  %24 = getelementptr inbounds nuw %"class.clang::OMPDeclareMapperDecl", ptr %22, i32 0, i32 2
  store ptr null, ptr %24, align 8
  %25 = getelementptr inbounds nuw %"class.clang::OMPDeclareMapperDecl", ptr %22, i32 0, i32 3
  call void @llvm.memcpy.p0.p0.i64(ptr align 8 %25, ptr align 8 %11, i64 8, i1 false)
  %26 = getelementptr inbounds nuw %"class.clang::OMPDeclareMapperDecl", ptr %22, i32 0, i32 4
  %27 = load ptr, ptr %14, align 8
  call void @_ZN5clang13LazyOffsetPtrINS_4DeclENS_12GlobalDeclIDEXadL_ZNS_17ExternalASTSource15GetExternalDeclES2_EEEC2EPS1_(ptr noundef nonnull align 8 dereferenceable(8) %26, ptr noundef %27)
  ret void
}

; Function Attrs: mustprogress nounwind uwtable
define linkonce_odr hidden noundef i64 @_ZN5clang23OMPDeclarativeDirectiveINS_9ValueDeclEE4sizeEjj(i32 noundef %0, i32 noundef %1) #0 comdat align 2 {
  %3 = alloca i32, align 4
  %4 = alloca i32, align 4
  store i32 %0, ptr %3, align 4
  store i32 %1, ptr %4, align 4
  %5 = load i32, ptr %3, align 4
  %6 = load i32, ptr %4, align 4
  %7 = call noundef i64 @_ZN5clang11OMPChildren4sizeEjbj(i32 noundef %5, i1 noundef zeroext false, i32 noundef %6)
  ret i64 %7
}

; Function Attrs: mustprogress nounwind uwtable
define linkonce_odr hidden noundef i64 @_ZNK4llvm8ArrayRefIPN5clang9OMPClauseEE4sizeEv(ptr noundef nonnull align 8 dereferenceable(16) %0) #0 comdat align 2 {
  %2 = alloca ptr, align 8
  store ptr %0, ptr %2, align 8
  %3 = load ptr, ptr %2, align 8
  %4 = getelementptr inbounds nuw %"class.llvm::ArrayRef.0", ptr %3, i32 0, i32 1
  %5 = load i64, ptr %4, align 8
  ret i64 %5
}

; Function Attrs: mustprogress nounwind uwtable
define linkonce_odr hidden noundef ptr @_ZN5clang23OMPDeclarativeDirectiveINS_9ValueDeclEE15createDirectiveINS_20OMPDeclareMapperDeclEJRNS_14SourceLocationERNS_15DeclarationNameERNS_8QualTypeES8_RPS4_EEEPT_RKNS_10ASTContextEPNS_11DeclContextEN4llvm8ArrayRefIPNS_9OMPClauseEEEjDpOT0_(ptr noundef nonnull align 8 dereferenceable(23096) %0, ptr noundef %1, ptr %2, i64 %3, i32 noundef %4, ptr noundef nonnull align 4 dereferenceable(4) %5, ptr noundef nonnull align 8 dereferenceable(8) %6, ptr noundef nonnull align 8 dereferenceable(8) %7, ptr noundef nonnull align 8 dereferenceable(8) %8, ptr noundef nonnull align 8 dereferenceable(8) %9) #0 comdat align 2 {
  %11 = alloca %"class.llvm::ArrayRef.0", align 8
  %12 = alloca ptr, align 8
  %13 = alloca ptr, align 8
  %14 = alloca i32, align 4
  %15 = alloca ptr, align 8
  %16 = alloca ptr, align 8
  %17 = alloca ptr, align 8
  %18 = alloca ptr, align 8
  %19 = alloca ptr, align 8
  %20 = alloca ptr, align 8
  %21 = alloca %"class.clang::SourceLocation", align 4
  %22 = alloca %"class.clang::DeclarationName", align 8
  %23 = alloca %"class.clang::QualType", align 8
  %24 = alloca %"class.clang::DeclarationName", align 8
  %25 = alloca %"class.llvm::ArrayRef.0", align 8
  %26 = alloca %"class.llvm::ArrayRef.0", align 8
  %27 = getelementptr inbounds nuw { ptr, i64 }, ptr %11, i32 0, i32 0
  store ptr %2, ptr %27, align 8
  %28 = getelementptr inbounds nuw { ptr, i64 }, ptr %11, i32 0, i32 1
  store i64 %3, ptr %28, align 8
  store ptr %0, ptr %12, align 8
  store ptr %1, ptr %13, align 8
  store i32 %4, ptr %14, align 4
  store ptr %5, ptr %15, align 8
  store ptr %6, ptr %16, align 8
  store ptr %7, ptr %17, align 8
  store ptr %8, ptr %18, align 8
  store ptr %9, ptr %19, align 8
  %29 = load ptr, ptr %12, align 8
  %30 = load ptr, ptr %13, align 8
  %31 = call noundef i64 @_ZNK4llvm8ArrayRefIPN5clang9OMPClauseEE4sizeEv(ptr noundef nonnull align 8 dereferenceable(16) %11)
  %32 = trunc i64 %31 to i32
  %33 = load i32, ptr %14, align 4
  %34 = call noundef i64 @_ZN5clang23OMPDeclarativeDirectiveINS_9ValueDeclEE4sizeEjj(i32 noundef %32, i32 noundef %33)
  %35 = call noundef ptr @_ZN5clang4DeclnwEmRKNS_10ASTContextEPNS_11DeclContextEm(i64 noundef 120, ptr noundef nonnull align 8 dereferenceable(23096) %29, ptr noundef %30, i64 noundef %34)
  %36 = load ptr, ptr %13, align 8
  %37 = load ptr, ptr %15, align 8
  call void @llvm.memcpy.p0.p0.i64(ptr align 4 %21, ptr align 4 %37, i64 4, i1 false)
  %38 = load ptr, ptr %16, align 8
  call void @llvm.memcpy.p0.p0.i64(ptr align 8 %22, ptr align 8 %38, i64 8, i1 false)
  %39 = load ptr, ptr %17, align 8
  call void @llvm.memcpy.p0.p0.i64(ptr align 8 %23, ptr align 8 %39, i64 8, i1 false)
  %40 = load ptr, ptr %18, align 8
  call void @llvm.memcpy.p0.p0.i64(ptr align 8 %24, ptr align 8 %40, i64 8, i1 false)
  %41 = load ptr, ptr %19, align 8
  %42 = load ptr, ptr %41, align 8
  %43 = getelementptr inbounds nuw %"class.clang::SourceLocation", ptr %21, i32 0, i32 0
  %44 = load i32, ptr %43, align 4
  %45 = getelementptr inbounds nuw %"class.clang::DeclarationName", ptr %22, i32 0, i32 0
  %46 = load i64, ptr %45, align 8
  %47 = getelementptr inbounds nuw %"class.clang::QualType", ptr %23, i32 0, i32 0
  %48 = getelementptr inbounds nuw %"class.llvm::PointerIntPair", ptr %47, i32 0, i32 0
  %49 = getelementptr inbounds nuw %"struct.llvm::detail::PunnedPointer", ptr %48, i32 0, i32 0
  %50 = load i64, ptr %49, align 8
  %51 = getelementptr inbounds nuw %"class.clang::DeclarationName", ptr %24, i32 0, i32 0
  %52 = load i64, ptr %51, align 8
  call void @_ZN5clang20OMPDeclareMapperDeclC2EPNS_11DeclContextENS_14SourceLocationENS_15DeclarationNameENS_8QualTypeES4_PS0_(ptr noundef nonnull align 8 dereferenceable(120) %35, ptr noundef %36, i32 %44, i64 %46, i64 %50, i64 %52, ptr noundef %42)
  store ptr %35, ptr %20, align 8
  %53 = load ptr, ptr %20, align 8
  %54 = getelementptr inbounds %"class.clang::OMPDeclareMapperDecl", ptr %53, i64 1
  call void @llvm.memcpy.p0.p0.i64(ptr align 8 %25, ptr align 8 %11, i64 16, i1 false)
  %55 = load i32, ptr %14, align 4
  %56 = getelementptr inbounds nuw { ptr, i64 }, ptr %25, i32 0, i32 0
  %57 = load ptr, ptr %56, align 8
  %58 = getelementptr inbounds nuw { ptr, i64 }, ptr %25, i32 0, i32 1
  %59 = load i64, ptr %58, align 8
  %60 = call noundef ptr @_ZN5clang11OMPChildren6CreateEPvN4llvm8ArrayRefIPNS_9OMPClauseEEEPNS_4StmtEj(ptr noundef %54, ptr %57, i64 %59, ptr noundef null, i32 noundef %55)
  %61 = load ptr, ptr %20, align 8
  %62 = getelementptr inbounds nuw %"class.clang::OMPDeclarativeDirective.345", ptr %61, i32 0, i32 1
  store ptr %60, ptr %62, align 8
  %63 = load ptr, ptr %20, align 8
  %64 = getelementptr inbounds nuw %"class.clang::OMPDeclarativeDirective.345", ptr %63, i32 0, i32 1
  %65 = load ptr, ptr %64, align 8
  call void @llvm.memcpy.p0.p0.i64(ptr align 8 %26, ptr align 8 %11, i64 16, i1 false)
  %66 = getelementptr inbounds nuw { ptr, i64 }, ptr %26, i32 0, i32 0
  %67 = load ptr, ptr %66, align 8
  %68 = getelementptr inbounds nuw { ptr, i64 }, ptr %26, i32 0, i32 1
  %69 = load i64, ptr %68, align 8
  call void @_ZN5clang11OMPChildren10setClausesEN4llvm8ArrayRefIPNS_9OMPClauseEEE(ptr noundef nonnull align 8 dereferenceable(16) %65, ptr %67, i64 %69)
  %70 = load ptr, ptr %20, align 8
  ret ptr %70
}

; Function Attrs: mustprogress nounwind uwtable
define dso_local noundef ptr @_ZN5clang20OMPDeclareMapperDecl6CreateERNS_10ASTContextEPNS_11DeclContextENS_14SourceLocationENS_15DeclarationNameENS_8QualTypeES6_N4llvm8ArrayRefIPNS_9OMPClauseEEEPS0_(ptr noundef nonnull align 8 dereferenceable(23096) %0, ptr noundef %1, i32 %2, i64 %3, i64 %4, i64 %5, ptr noundef byval(%"class.llvm::ArrayRef.0") align 8 %6, ptr noundef %7) #0 align 2 {
  %9 = alloca %"class.clang::SourceLocation", align 4
  %10 = alloca %"class.clang::DeclarationName", align 8
  %11 = alloca %"class.clang::QualType", align 8
  %12 = alloca %"class.clang::DeclarationName", align 8
  %13 = alloca ptr, align 8
  %14 = alloca ptr, align 8
  %15 = alloca ptr, align 8
  %16 = alloca %"class.llvm::ArrayRef.0", align 8
  %17 = getelementptr inbounds nuw %"class.clang::SourceLocation", ptr %9, i32 0, i32 0
  store i32 %2, ptr %17, align 4
  %18 = getelementptr inbounds nuw %"class.clang::DeclarationName", ptr %10, i32 0, i32 0
  store i64 %3, ptr %18, align 8
  %19 = getelementptr inbounds nuw %"class.clang::QualType", ptr %11, i32 0, i32 0
  %20 = getelementptr inbounds nuw %"class.llvm::PointerIntPair", ptr %19, i32 0, i32 0
  %21 = getelementptr inbounds nuw %"struct.llvm::detail::PunnedPointer", ptr %20, i32 0, i32 0
  store i64 %4, ptr %21, align 8
  %22 = getelementptr inbounds nuw %"class.clang::DeclarationName", ptr %12, i32 0, i32 0
  store i64 %5, ptr %22, align 8
  store ptr %0, ptr %13, align 8
  store ptr %1, ptr %14, align 8
  store ptr %7, ptr %15, align 8
  %23 = load ptr, ptr %13, align 8
  %24 = load ptr, ptr %14, align 8
  call void @llvm.memcpy.p0.p0.i64(ptr align 8 %16, ptr align 8 %6, i64 16, i1 false)
  %25 = getelementptr inbounds nuw { ptr, i64 }, ptr %16, i32 0, i32 0
  %26 = load ptr, ptr %25, align 8
  %27 = getelementptr inbounds nuw { ptr, i64 }, ptr %16, i32 0, i32 1
  %28 = load i64, ptr %27, align 8
  %29 = call noundef ptr @_ZN5clang23OMPDeclarativeDirectiveINS_9ValueDeclEE15createDirectiveINS_20OMPDeclareMapperDeclEJRNS_14SourceLocationERNS_15DeclarationNameERNS_8QualTypeES8_RPS4_EEEPT_RKNS_10ASTContextEPNS_11DeclContextEN4llvm8ArrayRefIPNS_9OMPClauseEEEjDpOT0_(ptr noundef nonnull align 8 dereferenceable(23096) %23, ptr noundef %24, ptr %26, i64 %28, i32 noundef 1, ptr noundef nonnull align 4 dereferenceable(4) %9, ptr noundef nonnull align 8 dereferenceable(8) %10, ptr noundef nonnull align 8 dereferenceable(8) %11, ptr noundef nonnull align 8 dereferenceable(8) %12, ptr noundef nonnull align 8 dereferenceable(8) %15)
  ret ptr %29
}