; Function Attrs: mustprogress nounwind uwtable
define dso_local noundef ptr @_ZN5clang20OMPDeclareMapperDecl6CreateERNS_10ASTContextEPNS_11DeclContextENS_14SourceLocationENS_15DeclarationNameENS_8QualTypeES6_N4llvm8ArrayRefIPNS_9OMPClauseEEEPS0_(ptr noundef nonnull align 8 dereferenceable(23096) %0, ptr noundef %1, i32 %2, i64 %3, i64 %4, i64 %5, ptr nocapture noundef readonly byval(%"class.llvm::ArrayRef.0") align 8 %6, ptr noundef %7) local_unnamed_addr #1 align 2 {
  %.sroa.0.0.copyload = load ptr, ptr %6, align 8
  %.sroa.2.0..sroa_idx = getelementptr inbounds i8, ptr %6, i64 8
  %.sroa.2.0.copyload = load i64, ptr %.sroa.2.0..sroa_idx, align 8
  %9 = trunc i64 %.sroa.2.0.copyload to i32
  %10 = tail call noundef i64 @_ZN5clang11OMPChildren4sizeEjbj(i32 noundef %9, i1 noundef zeroext false, i32 noundef 1) #10
  %11 = tail call noundef ptr @_ZN5clang4DeclnwEmRKNS_10ASTContextEPNS_11DeclContextEm(i64 noundef 120, ptr noundef nonnull align 8 dereferenceable(23096) %0, ptr noundef %1, i64 noundef %10) #10
  tail call void @_ZN5clang4DeclC2ENS0_4KindEPNS_11DeclContextENS_14SourceLocationE(ptr noundef nonnull align 8 dereferenceable(33) %11, i32 noundef 24, ptr noundef %1, i32 %2)
  %12 = getelementptr inbounds nuw i8, ptr %11, i64 40
  store i64 %3, ptr %12, align 8
  %13 = getelementptr inbounds nuw i8, ptr %11, i64 48
  store i64 %4, ptr %13, align 8
  store ptr getelementptr inbounds inrange(-16, 104) (i8, ptr @_ZTVN5clang23OMPDeclarativeDirectiveINS_9ValueDeclEEE, i64 16), ptr %11, align 8
  %14 = getelementptr inbounds nuw i8, ptr %11, i64 56
  store ptr null, ptr %14, align 8
  %15 = getelementptr inbounds i8, ptr %11, i64 64
  tail call void @_ZN5clang11DeclContextC2ENS_4Decl4KindE(ptr noundef nonnull align 8 dereferenceable(32) %15, i32 noundef 24) #10
  store ptr getelementptr inbounds inrange(-16, 104) (i8, ptr @_ZTVN5clang20OMPDeclareMapperDeclE, i64 16), ptr %11, align 8
  %16 = getelementptr inbounds nuw i8, ptr %11, i64 96
  store ptr null, ptr %16, align 8
  %17 = getelementptr inbounds nuw i8, ptr %11, i64 104
  store i64 %5, ptr %17, align 8
  %18 = getelementptr inbounds nuw i8, ptr %11, i64 112
  %19 = ptrtoint ptr %7 to i64
  store i64 %19, ptr %18, align 8
  %20 = getelementptr inbounds i8, ptr %11, i64 120
  %21 = tail call noundef ptr @_ZN5clang11OMPChildren6CreateEPvN4llvm8ArrayRefIPNS_9OMPClauseEEEPNS_4StmtEj(ptr noundef nonnull %20, ptr %.sroa.0.0.copyload, i64 %.sroa.2.0.copyload, ptr noundef null, i32 noundef 1) #10
  store ptr %21, ptr %14, align 8
  tail call void @_ZN5clang11OMPChildren10setClausesEN4llvm8ArrayRefIPNS_9OMPClauseEEE(ptr noundef nonnull align 8 dereferenceable(16) %21, ptr %.sroa.0.0.copyload, i64 %.sroa.2.0.copyload) #10
  ret ptr %11
}